; Function Attrs: mustprogress uwtable
define noundef nonnull align 8 dereferenceable(8) ptr @_ZN2cv4gapi4s11nrsERNS1_8IIStreamERNS_5gimpl6RcDescE(ptr noundef nonnull align 8 dereferenceable(8) %0, ptr noundef nonnull align 8 dereferenceable(48) %1) local_unnamed_addr #3 {
  %3 = alloca i32, align 4
  %4 = load ptr, ptr %0, align 8, !tbaa !8
  %5 = getelementptr inbounds nuw i8, ptr %4, i64 64
  %6 = load ptr, ptr %5, align 8
  %7 = tail call noundef nonnull align 8 dereferenceable(8) ptr %6(ptr noundef nonnull align 8 dereferenceable(8) %0, ptr noundef nonnull align 4 dereferenceable(4) %1)
  %8 = getelementptr inbounds nuw i8, ptr %1, i64 4
  call void @llvm.lifetime.start.p0(i64 4, ptr nonnull %3) #31
  store i32 0, ptr %3, align 4, !tbaa !38
  %9 = load ptr, ptr %7, align 8, !tbaa !8
  %10 = getelementptr inbounds nuw i8, ptr %9, i64 64
  %11 = load ptr, ptr %10, align 8
  %12 = call noundef nonnull align 8 dereferenceable(8) ptr %11(ptr noundef nonnull align 8 dereferenceable(8) %7, ptr noundef nonnull align 4 dereferenceable(4) %3)
  %13 = load i32, ptr %3, align 4, !tbaa !38
  store i32 %13, ptr %8, align 4, !tbaa !238
  call void @llvm.lifetime.end.p0(i64 4, ptr nonnull %3) #31
  ret ptr %7
}